target datalayout = "e-m:e-p270:32:32-p271:32:32-p272:64:64-i64:64-i128:128-f80:128-n8:16:32:64-S128"
target triple = "x86_64-pc-linux-gnu"

%struct.exp_pdu_data_item = type { ptr, ptr, ptr }
%struct._packet_info = type { ptr, ptr, i32, i32, %struct.nstime_t, %struct.nstime_t, %struct.nstime_t, i32, ptr, ptr, ptr, ptr, %struct._address, %struct._address, %struct._address, %struct._address, %struct._address, %struct._address, i32, ptr, i32, %struct.anon, i32, i32, i32, i32, ptr, i32, ptr, ptr, i16, i16, i32, i32, i16, i32, i32, ptr, ptr, ptr, i8, i8, i16, i16, i16, i32, i16, i16, ptr, ptr, ptr, ptr, ptr, i32 }
%struct.nstime_t = type { i64, i32 }
%struct._address = type { i32, i32, ptr, ptr }
%struct.anon = type { i8, [3 x i8] }
%struct._exp_pdu_data_t = type { i32, ptr, i32, i32, ptr }
%struct.heur_dtbl_entry = type { ptr, ptr, ptr, ptr, ptr, i32, i8 }

@exported_pdu_tap = internal global i32 0, align 4
@.str.7 = private unnamed_addr constant [5 x i8] c"data\00", align 1
@exp_pdu_data_src_ip = external global %struct.exp_pdu_data_item, align 8
@exp_pdu_data_dst_ip = external global %struct.exp_pdu_data_item, align 8
@exp_pdu_data_port_type = external global %struct.exp_pdu_data_item, align 8
@exp_pdu_data_src_port = external global %struct.exp_pdu_data_item, align 8
@exp_pdu_data_dst_port = external global %struct.exp_pdu_data_item, align 8
@exp_pdu_data_orig_frame_num = external global %struct.exp_pdu_data_item, align 8
@__const.handle_export_pdu_heuristic.exp_pdu_data_dissector_data = private unnamed_addr constant %struct.exp_pdu_data_item { ptr @exp_pdu_tcp_dissector_data_size, ptr @exp_pdu_tcp_dissector_data_populate_data, ptr null }, align 8

; Function Attrs: nounwind uwtable
define internal ptr @handle_export_pdu_check_desegmentation(ptr noundef %0, ptr noundef %1) #0 {
  %3 = alloca ptr, align 8
  %4 = alloca ptr, align 8
  %5 = alloca ptr, align 8
  store ptr %0, ptr %4, align 8
  store ptr %1, ptr %5, align 8
  %6 = load ptr, ptr %4, align 8
  %7 = getelementptr inbounds %struct._packet_info, ptr %6, i32 0, i32 30
  %8 = load i16, ptr %7, align 8
  %9 = zext i16 %8 to i32
  %10 = icmp sgt i32 %9, 0
  br i1 %10, label %11, label %28

11:                                               ; preds = %2
  %12 = load ptr, ptr %4, align 8
  %13 = getelementptr inbounds %struct._packet_info, ptr %12, i32 0, i32 33
  %14 = load i32, ptr %13, align 8
  %15 = icmp ne i32 %14, 0
  br i1 %15, label %16, label %28

16:                                               ; preds = %11
  %17 = load ptr, ptr %4, align 8
  %18 = getelementptr inbounds %struct._packet_info, ptr %17, i32 0, i32 32
  %19 = load i32, ptr %18, align 4
  %20 = icmp eq i32 %19, 0
  br i1 %20, label %21, label %22

21:                                               ; preds = %16
  store ptr null, ptr %3, align 8
  br label %30

22:                                               ; preds = %16
  %23 = load ptr, ptr %5, align 8
  %24 = load ptr, ptr %4, align 8
  %25 = getelementptr inbounds %struct._packet_info, ptr %24, i32 0, i32 32
  %26 = load i32, ptr %25, align 4
  %27 = call ptr @tvb_new_subset_length(ptr noundef %23, i32 noundef 0, i32 noundef %26)
  store ptr %27, ptr %5, align 8
  br label %28

28:                                               ; preds = %22, %11, %2
  %29 = load ptr, ptr %5, align 8
  store ptr %29, ptr %3, align 8
  br label %30

30:                                               ; preds = %28, %21
  %31 = load ptr, ptr %3, align 8
  ret ptr %31
}

; Function Attrs: nounwind uwtable
define internal void @handle_export_pdu_heuristic(ptr noundef %0, ptr noundef %1, ptr noundef %2, ptr noundef %3) #0 {
  %5 = alloca ptr, align 8
  %6 = alloca ptr, align 8
  %7 = alloca ptr, align 8
  %8 = alloca ptr, align 8
  %9 = alloca ptr, align 8
  %10 = alloca %struct.exp_pdu_data_item, align 8
  %11 = alloca [8 x ptr], align 16
  store ptr %0, ptr %5, align 8
  store ptr %1, ptr %6, align 8
  store ptr %2, ptr %7, align 8
  store ptr %3, ptr %8, align 8
  store ptr null, ptr %9, align 8
  %12 = load i32, ptr @exported_pdu_tap, align 4
  %13 = call i32 @have_tap_listener(i32 noundef %12)
  %14 = icmp ne i32 %13, 0
  br i1 %14, label %15, label %83

15:                                               ; preds = %4
  %16 = load ptr, ptr %5, align 8
  %17 = load ptr, ptr %6, align 8
  %18 = call ptr @handle_export_pdu_check_desegmentation(ptr noundef %16, ptr noundef %17)
  store ptr %18, ptr %6, align 8
  %19 = load ptr, ptr %6, align 8
  %20 = icmp eq ptr %19, null
  br i1 %20, label %21, label %22

21:                                               ; preds = %15
  br label %83

22:                                               ; preds = %15
  %23 = load ptr, ptr %7, align 8
  %24 = getelementptr inbounds %struct.heur_dtbl_entry, ptr %23, i32 0, i32 5
  %25 = load i32, ptr %24, align 8
  %26 = icmp ne i32 %25, 0
  br i1 %26, label %27, label %38

27:                                               ; preds = %22
  %28 = load ptr, ptr %7, align 8
  %29 = getelementptr inbounds %struct.heur_dtbl_entry, ptr %28, i32 0, i32 1
  %30 = load ptr, ptr %29, align 8
  %31 = icmp ne ptr %30, null
  br i1 %31, label %32, label %41

32:                                               ; preds = %27
  %33 = load ptr, ptr %7, align 8
  %34 = getelementptr inbounds %struct.heur_dtbl_entry, ptr %33, i32 0, i32 1
  %35 = load ptr, ptr %34, align 8
  %36 = call i32 @proto_is_protocol_enabled(ptr noundef %35)
  %37 = icmp ne i32 %36, 0
  br i1 %37, label %41, label %38

38:                                               ; preds = %32, %22
  %39 = load ptr, ptr %5, align 8
  %40 = call ptr @export_pdu_create_common_tags(ptr noundef %39, ptr noundef @.str.7, i16 noundef zeroext 12)
  store ptr %40, ptr %9, align 8
  br label %64

41:                                               ; preds = %32, %27
  %42 = load ptr, ptr %7, align 8
  %43 = getelementptr inbounds %struct.heur_dtbl_entry, ptr %42, i32 0, i32 1
  %44 = load ptr, ptr %43, align 8
  %45 = icmp ne ptr %44, null
  br i1 %45, label %46, label %63

46:                                               ; preds = %41
  call void @llvm.memcpy.p0.p0.i64(ptr align 8 %10, ptr align 8 @__const.handle_export_pdu_heuristic.exp_pdu_data_dissector_data, i64 24, i1 false)
  %47 = getelementptr inbounds [8 x ptr], ptr %11, i64 0, i64 0
  store ptr @exp_pdu_data_src_ip, ptr %47, align 8
  %48 = getelementptr inbounds ptr, ptr %47, i64 1
  store ptr @exp_pdu_data_dst_ip, ptr %48, align 8
  %49 = getelementptr inbounds ptr, ptr %48, i64 1
  store ptr @exp_pdu_data_port_type, ptr %49, align 8
  %50 = getelementptr inbounds ptr, ptr %49, i64 1
  store ptr @exp_pdu_data_src_port, ptr %50, align 8
  %51 = getelementptr inbounds ptr, ptr %50, i64 1
  store ptr @exp_pdu_data_dst_port, ptr %51, align 8
  %52 = getelementptr inbounds ptr, ptr %51, i64 1
  store ptr @exp_pdu_data_orig_frame_num, ptr %52, align 8
  %53 = getelementptr inbounds ptr, ptr %52, i64 1
  store ptr %10, ptr %53, align 8
  %54 = getelementptr inbounds ptr, ptr %53, i64 1
  store ptr null, ptr %54, align 8
  %55 = load ptr, ptr %8, align 8
  %56 = getelementptr inbounds %struct.exp_pdu_data_item, ptr %10, i32 0, i32 2
  store ptr %55, ptr %56, align 8
  %57 = load ptr, ptr %5, align 8
  %58 = load ptr, ptr %7, align 8
  %59 = getelementptr inbounds %struct.heur_dtbl_entry, ptr %58, i32 0, i32 4
  %60 = load ptr, ptr %59, align 8
  %61 = getelementptr inbounds [8 x ptr], ptr %11, i64 0, i64 0
  %62 = call ptr @export_pdu_create_tags(ptr noundef %57, ptr noundef %60, i16 noundef zeroext 13, ptr noundef %61)
  store ptr %62, ptr %9, align 8
  br label %63

63:                                               ; preds = %46, %41
  br label %64

64:                                               ; preds = %63, %38
  %65 = load ptr, ptr %9, align 8
  %66 = icmp ne ptr %65, null
  br i1 %66, label %67, label %82

67:                                               ; preds = %64
  %68 = load ptr, ptr %6, align 8
  %69 = call i32 @tvb_captured_length(ptr noundef %68)
  %70 = load ptr, ptr %9, align 8
  %71 = getelementptr inbounds %struct._exp_pdu_data_t, ptr %70, i32 0, i32 2
  store i32 %69, ptr %71, align 8
  %72 = load ptr, ptr %6, align 8
  %73 = call i32 @tvb_reported_length(ptr noundef %72)
  %74 = load ptr, ptr %9, align 8
  %75 = getelementptr inbounds %struct._exp_pdu_data_t, ptr %74, i32 0, i32 3
  store i32 %73, ptr %75, align 4
  %76 = load ptr, ptr %6, align 8
  %77 = load ptr, ptr %9, align 8
  %78 = getelementptr inbounds %struct._exp_pdu_data_t, ptr %77, i32 0, i32 4
  store ptr %76, ptr %78, align 8
  %79 = load i32, ptr @exported_pdu_tap, align 4
  %80 = load ptr, ptr %5, align 8
  %81 = load ptr, ptr %9, align 8
  call void @tap_queue_packet(i32 noundef %79, ptr noundef %80, ptr noundef %81)
  br label %82

82:                                               ; preds = %67, %64
  br label %83

83:                                               ; preds = %82, %21, %4
  ret void
}