; Function Attrs: nounwind uwtable
define internal fastcc void @handle_export_pdu_heuristic(ptr noundef %0, ptr noundef %1, ptr noundef readonly captures(none) %2, ptr noundef %3) unnamed_addr #0 {
  %5 = alloca %struct.exp_pdu_data_item, align 8
  %6 = alloca [8 x ptr], align 16
  %7 = load i32, ptr @exported_pdu_tap, align 4
  %8 = tail call i32 @have_tap_listener(i32 noundef %7) #20
  %.not = icmp eq i32 %8, 0
  br i1 %.not, label %handle_export_pdu_check_desegmentation.exit.thread, label %9

9:                                                ; preds = %4
  %10 = getelementptr inbounds nuw i8, ptr %0, i64 328
  %11 = load i16, ptr %10, align 8
  %.not.i = icmp eq i16 %11, 0
  br i1 %.not.i, label %handle_export_pdu_check_desegmentation.exit, label %12

12:                                               ; preds = %9
  %13 = getelementptr inbounds nuw i8, ptr %0, i64 336
  %14 = load i32, ptr %13, align 8
  %.not9.i = icmp eq i32 %14, 0
  br i1 %.not9.i, label %handle_export_pdu_check_desegmentation.exit, label %15

15:                                               ; preds = %12
  %16 = getelementptr inbounds nuw i8, ptr %0, i64 332
  %17 = load i32, ptr %16, align 4
  %18 = icmp eq i32 %17, 0
  br i1 %18, label %handle_export_pdu_check_desegmentation.exit.thread, label %19

19:                                               ; preds = %15
  %20 = tail call ptr @tvb_new_subset_length(ptr noundef %1, i32 noundef 0, i32 noundef %17) #20
  br label %handle_export_pdu_check_desegmentation.exit

handle_export_pdu_check_desegmentation.exit:      ; preds = %9, %12, %19
  %.07.i = phi ptr [ %20, %19 ], [ %1, %12 ], [ %1, %9 ]
  %21 = icmp eq ptr %.07.i, null
  br i1 %21, label %handle_export_pdu_check_desegmentation.exit.thread, label %22

22:                                               ; preds = %handle_export_pdu_check_desegmentation.exit
  %23 = getelementptr inbounds nuw i8, ptr %2, i64 40
  %24 = load i32, ptr %23, align 8
  %.not22 = icmp eq i32 %24, 0
  br i1 %.not22, label %30, label %25

25:                                               ; preds = %22
  %26 = getelementptr inbounds nuw i8, ptr %2, i64 8
  %27 = load ptr, ptr %26, align 8
  %.not23 = icmp eq ptr %27, null
  br i1 %.not23, label %handle_export_pdu_check_desegmentation.exit.thread, label %28

28:                                               ; preds = %25
  %29 = tail call i32 @proto_is_protocol_enabled(ptr noundef nonnull %27) #20
  %.not24 = icmp eq i32 %29, 0
  br i1 %.not24, label %30, label %32

30:                                               ; preds = %28, %22
  %31 = tail call ptr @export_pdu_create_common_tags(ptr noundef nonnull %0, ptr noundef nonnull @.str.7, i16 noundef zeroext 12) #20
  br label %45

32:                                               ; preds = %28
  %.pr = load ptr, ptr %26, align 8
  %.not25 = icmp eq ptr %.pr, null
  br i1 %.not25, label %handle_export_pdu_check_desegmentation.exit.thread, label %33

33:                                               ; preds = %32
  call void @llvm.memcpy.p0.p0.i64(ptr noundef nonnull align 8 dereferenceable(24) %5, ptr noundef nonnull align 8 dereferenceable(24) @__const.handle_export_pdu_heuristic.exp_pdu_data_dissector_data, i64 16, i1 false)
  store ptr @exp_pdu_data_src_ip, ptr %6, align 16
  %34 = getelementptr inbounds nuw i8, ptr %6, i64 8
  store ptr @exp_pdu_data_dst_ip, ptr %34, align 8
  %35 = getelementptr inbounds nuw i8, ptr %6, i64 16
  store ptr @exp_pdu_data_port_type, ptr %35, align 16
  %36 = getelementptr inbounds nuw i8, ptr %6, i64 24
  store ptr @exp_pdu_data_src_port, ptr %36, align 8
  %37 = getelementptr inbounds nuw i8, ptr %6, i64 32
  store ptr @exp_pdu_data_dst_port, ptr %37, align 16
  %38 = getelementptr inbounds nuw i8, ptr %6, i64 40
  store ptr @exp_pdu_data_orig_frame_num, ptr %38, align 8
  %39 = getelementptr inbounds nuw i8, ptr %6, i64 48
  store ptr %5, ptr %39, align 16
  %40 = getelementptr inbounds nuw i8, ptr %6, i64 56
  store ptr null, ptr %40, align 8
  %41 = getelementptr inbounds nuw i8, ptr %5, i64 16
  store ptr %3, ptr %41, align 8
  %42 = getelementptr inbounds nuw i8, ptr %2, i64 32
  %43 = load ptr, ptr %42, align 8
  %44 = call ptr @export_pdu_create_tags(ptr noundef nonnull %0, ptr noundef %43, i16 noundef zeroext 13, ptr noundef nonnull %6) #20
  br label %45

45:                                               ; preds = %33, %30
  %.0 = phi ptr [ %44, %33 ], [ %31, %30 ]
  %.not26 = icmp eq ptr %.0, null
  br i1 %.not26, label %handle_export_pdu_check_desegmentation.exit.thread, label %46

46:                                               ; preds = %45
  %47 = call i32 @tvb_captured_length(ptr noundef nonnull %.07.i) #20
  %48 = getelementptr inbounds nuw i8, ptr %.0, i64 16
  store i32 %47, ptr %48, align 8
  %49 = call i32 @tvb_reported_length(ptr noundef nonnull %.07.i) #20
  %50 = getelementptr inbounds nuw i8, ptr %.0, i64 20
  store i32 %49, ptr %50, align 4
  %51 = getelementptr inbounds nuw i8, ptr %.0, i64 24
  store ptr %.07.i, ptr %51, align 8
  %52 = load i32, ptr @exported_pdu_tap, align 4
  call void @tap_queue_packet(i32 noundef %52, ptr noundef nonnull %0, ptr noundef nonnull %.0) #20
  br label %handle_export_pdu_check_desegmentation.exit.thread

handle_export_pdu_check_desegmentation.exit.thread: ; preds = %25, %32, %15, %45, %46, %handle_export_pdu_check_desegmentation.exit, %4
  ret void
}